; Function Attrs: mustprogress nounwind uwtable
define dso_local void @_ZNK4llvm11ms_demangle18IntegerLiteralNode6outputERNS_16itanium_demangle12OutputBufferENS0_11OutputFlagsE(ptr nocapture noundef nonnull readonly align 8 dereferenceable(25) %0, ptr nocapture noundef nonnull align 8 dereferenceable(36) %1, i32 %2) unnamed_addr #0 align 2 {
  %4 = alloca %"struct.std::array.0", align 1
  %5 = getelementptr inbounds nuw i8, ptr %0, i64 24
  %6 = load i8, ptr %5, align 8
  %7 = trunc i8 %6 to i1
  br i1 %7, label %8, label %24

8:                                                ; preds = %3
  %9 = getelementptr inbounds nuw i8, ptr %1, i64 8
  %10 = load i64, ptr %9, align 8
  %11 = add i64 %10, 1
  %12 = getelementptr inbounds nuw i8, ptr %1, i64 16
  %13 = load i64, ptr %12, align 8
  %14 = icmp ugt i64 %11, %13
  %.pre.i.i = load ptr, ptr %1, align 8
  br i1 %14, label %15, label %_ZN4llvm16itanium_demangle12OutputBufferlsEc.exit

15:                                               ; preds = %8
  %16 = add i64 %10, 993
  %17 = shl i64 %13, 1
  %spec.select.i.i.i = tail call i64 @llvm.umax.i64(i64 %17, i64 %16)
  store i64 %spec.select.i.i.i, ptr %12, align 8
  %18 = tail call ptr @realloc(ptr noundef %.pre.i.i, i64 noundef %spec.select.i.i.i) #16
  store ptr %18, ptr %1, align 8
  %19 = icmp eq ptr %18, null
  br i1 %19, label %20, label %._ZN4llvm16itanium_demangle12OutputBuffer4growEm.exit_crit_edge.i.i

._ZN4llvm16itanium_demangle12OutputBuffer4growEm.exit_crit_edge.i.i: ; preds = %15
  %.pre1.i.i = load i64, ptr %9, align 8
  %.pre2.i.i = add i64 %.pre1.i.i, 1
  br label %_ZN4llvm16itanium_demangle12OutputBufferlsEc.exit

20:                                               ; preds = %15
  tail call void @abort() #17
  unreachable

_ZN4llvm16itanium_demangle12OutputBufferlsEc.exit: ; preds = %8, %._ZN4llvm16itanium_demangle12OutputBuffer4growEm.exit_crit_edge.i.i
  %.pre-phi.i.i = phi i64 [ %.pre2.i.i, %._ZN4llvm16itanium_demangle12OutputBuffer4growEm.exit_crit_edge.i.i ], [ %11, %8 ]
  %21 = phi i64 [ %.pre1.i.i, %._ZN4llvm16itanium_demangle12OutputBuffer4growEm.exit_crit_edge.i.i ], [ %10, %8 ]
  %22 = phi ptr [ %18, %._ZN4llvm16itanium_demangle12OutputBuffer4growEm.exit_crit_edge.i.i ], [ %.pre.i.i, %8 ]
  store i64 %.pre-phi.i.i, ptr %9, align 8
  %23 = getelementptr inbounds i8, ptr %22, i64 %21
  store i8 45, ptr %23, align 1
  br label %24

24:                                               ; preds = %_ZN4llvm16itanium_demangle12OutputBufferlsEc.exit, %3
  %25 = getelementptr inbounds nuw i8, ptr %0, i64 16
  %26 = load i64, ptr %25, align 8
  call void @llvm.lifetime.start.p0(i64 21, ptr nonnull %4)
  br label %27

27:                                               ; preds = %27, %24
  %.08.i.i.i = phi i64 [ %26, %24 ], [ %31, %27 ]
  %.0.idx.i.i.i = phi i64 [ 21, %24 ], [ %.0.add.i.i.i, %27 ]
  %28 = urem i64 %.08.i.i.i, 10
  %29 = trunc nuw nsw i64 %28 to i8
  %30 = or disjoint i8 %29, 48
  %.0.add.i.i.i = add nsw i64 %.0.idx.i.i.i, -1
  %.ptr.i.i.i = getelementptr inbounds i8, ptr %4, i64 %.0.add.i.i.i
  store i8 %30, ptr %.ptr.i.i.i, align 1
  %31 = udiv i64 %.08.i.i.i, 10
  %.not.i.i.i = icmp ult i64 %.08.i.i.i, 10
  br i1 %.not.i.i.i, label %32, label %27, !llvm.loop !6

32:                                               ; preds = %27
  %.ptr.i.i.i.le = getelementptr inbounds i8, ptr %4, i64 %.0.add.i.i.i
  %gepdiff.i.i.i = sub nsw i64 22, %.0.idx.i.i.i
  %.not.i.i.i.i = icmp eq i64 %.0.add.i.i.i, 21
  br i1 %.not.i.i.i.i, label %_ZN4llvm16itanium_demangle12OutputBufferlsEm.exit, label %33

33:                                               ; preds = %32
  %34 = getelementptr inbounds nuw i8, ptr %1, i64 8
  %35 = load i64, ptr %34, align 8
  %36 = add i64 %35, %gepdiff.i.i.i
  %37 = getelementptr inbounds nuw i8, ptr %1, i64 16
  %38 = load i64, ptr %37, align 8
  %39 = icmp ugt i64 %36, %38
  %.pre.i.i.i.i = load ptr, ptr %1, align 8
  br i1 %39, label %40, label %_ZN4llvm16itanium_demangle12OutputBuffer4growEm.exit.i.i.i.i

40:                                               ; preds = %33
  %41 = add i64 %36, 992
  %42 = shl i64 %38, 1
  %spec.select.i.i.i.i.i = tail call i64 @llvm.umax.i64(i64 %42, i64 %41)
  store i64 %spec.select.i.i.i.i.i, ptr %37, align 8
  %43 = tail call ptr @realloc(ptr noundef %.pre.i.i.i.i, i64 noundef %spec.select.i.i.i.i.i) #16
  store ptr %43, ptr %1, align 8
  %44 = icmp eq ptr %43, null
  br i1 %44, label %45, label %._ZN4llvm16itanium_demangle12OutputBuffer4growEm.exit_crit_edge.i.i.i.i

._ZN4llvm16itanium_demangle12OutputBuffer4growEm.exit_crit_edge.i.i.i.i: ; preds = %40
  %.pre4.i.i.i.i = load i64, ptr %34, align 8
  br label %_ZN4llvm16itanium_demangle12OutputBuffer4growEm.exit.i.i.i.i

45:                                               ; preds = %40
  tail call void @abort() #17
  unreachable

_ZN4llvm16itanium_demangle12OutputBuffer4growEm.exit.i.i.i.i: ; preds = %._ZN4llvm16itanium_demangle12OutputBuffer4growEm.exit_crit_edge.i.i.i.i, %33
  %46 = phi i64 [ %35, %33 ], [ %.pre4.i.i.i.i, %._ZN4llvm16itanium_demangle12OutputBuffer4growEm.exit_crit_edge.i.i.i.i ]
  %47 = phi ptr [ %.pre.i.i.i.i, %33 ], [ %43, %._ZN4llvm16itanium_demangle12OutputBuffer4growEm.exit_crit_edge.i.i.i.i ]
  %48 = getelementptr inbounds i8, ptr %47, i64 %46
  call void @llvm.memcpy.p0.p0.i64(ptr align 1 %48, ptr nonnull align 1 %.ptr.i.i.i.le, i64 %gepdiff.i.i.i, i1 false)
  %49 = load i64, ptr %34, align 8
  %50 = add i64 %49, %gepdiff.i.i.i
  store i64 %50, ptr %34, align 8
  br label %_ZN4llvm16itanium_demangle12OutputBufferlsEm.exit

_ZN4llvm16itanium_demangle12OutputBufferlsEm.exit: ; preds = %32, %_ZN4llvm16itanium_demangle12OutputBuffer4growEm.exit.i.i.i.i
  call void @llvm.lifetime.end.p0(i64 21, ptr nonnull %4)
  ret void
}